; Function Attrs: nounwind uwtable
define noundef nonnull ptr @l_Std_DHashMap_Internal_AssocList_contains___at___private_Lean_Server_Completion_CompletionInfoSelection_0__Lean_Server_Completion_computePrioritizedCompletionPartitions___spec__2___boxed(ptr noundef %0, ptr noundef %1) local_unnamed_addr #0 {
  %3 = getelementptr inbounds nuw i8, ptr %0, i64 8
  %4 = getelementptr inbounds nuw i8, ptr %0, i64 16
  br label %.backedge.i

.backedge.i:                                      ; preds = %.backedge.i.backedge, %2
  %.033.i = phi ptr [ %1, %2 ], [ %27, %.backedge.i.backedge ]
  %5 = ptrtoint ptr %.033.i to i64
  %6 = and i64 %5, 1
  %.not.i.i = icmp eq i64 %6, 0
  br i1 %.not.i.i, label %10, label %7

7:                                                ; preds = %.backedge.i
  %8 = lshr i64 %5, 1
  %9 = trunc i64 %8 to i32
  br label %lean_obj_tag.exit.i

10:                                               ; preds = %.backedge.i
  %11 = getelementptr i8, ptr %.033.i, i64 4
  %.val.i.i = load i32, ptr %11, align 4
  %12 = lshr i32 %.val.i.i, 24
  br label %lean_obj_tag.exit.i

lean_obj_tag.exit.i:                              ; preds = %10, %7
  %.0.i.i = phi i32 [ %9, %7 ], [ %12, %10 ]
  %13 = icmp eq i32 %.0.i.i, 0
  br i1 %13, label %l_Std_DHashMap_Internal_AssocList_contains___at___private_Lean_Server_Completion_CompletionInfoSelection_0__Lean_Server_Completion_computePrioritizedCompletionPartitions___spec__2.exit, label %14

14:                                               ; preds = %lean_obj_tag.exit.i
  %15 = getelementptr inbounds nuw i8, ptr %.033.i, i64 8
  %16 = load ptr, ptr %15, align 8, !tbaa !4
  %17 = getelementptr inbounds nuw i8, ptr %16, i64 8
  %18 = load ptr, ptr %17, align 8, !tbaa !4
  %19 = ptrtoint ptr %18 to i64
  %20 = and i64 %19, 510
  %21 = icmp eq i64 %20, 0
  %22 = load ptr, ptr %3, align 8, !tbaa !4
  %23 = ptrtoint ptr %22 to i64
  %24 = and i64 %23, 510
  %25 = icmp eq i64 %24, 0
  %26 = getelementptr inbounds nuw i8, ptr %.033.i, i64 24
  %27 = load ptr, ptr %26, align 8, !tbaa !4
  br i1 %21, label %28, label %35

28:                                               ; preds = %14
  br i1 %25, label %29, label %.backedge.i.backedge

29:                                               ; preds = %28
  %30 = getelementptr inbounds nuw i8, ptr %16, i64 16
  %31 = load ptr, ptr %30, align 8, !tbaa !4
  %32 = load ptr, ptr %4, align 8, !tbaa !4
  %33 = tail call zeroext i8 @l_Option_beqOption____x40_Init_Data_Option_Basic___hyg_160____at_System_FilePath_parent___spec__1(ptr noundef %31, ptr noundef %32) #4
  %34 = icmp eq i8 %33, 0
  br i1 %34, label %.backedge.i.backedge, label %l_Std_DHashMap_Internal_AssocList_contains___at___private_Lean_Server_Completion_CompletionInfoSelection_0__Lean_Server_Completion_computePrioritizedCompletionPartitions___spec__2.exit

35:                                               ; preds = %14
  br i1 %25, label %.backedge.i.backedge, label %36

36:                                               ; preds = %35
  %37 = getelementptr inbounds nuw i8, ptr %16, i64 16
  %38 = load ptr, ptr %37, align 8, !tbaa !4
  %39 = load ptr, ptr %4, align 8, !tbaa !4
  %40 = tail call zeroext i8 @l_Option_beqOption____x40_Init_Data_Option_Basic___hyg_160____at_System_FilePath_parent___spec__1(ptr noundef %38, ptr noundef %39) #4
  %41 = icmp eq i8 %40, 0
  br i1 %41, label %.backedge.i.backedge, label %l_Std_DHashMap_Internal_AssocList_contains___at___private_Lean_Server_Completion_CompletionInfoSelection_0__Lean_Server_Completion_computePrioritizedCompletionPartitions___spec__2.exit

.backedge.i.backedge:                             ; preds = %36, %35, %29, %28
  br label %.backedge.i

l_Std_DHashMap_Internal_AssocList_contains___at___private_Lean_Server_Completion_CompletionInfoSelection_0__Lean_Server_Completion_computePrioritizedCompletionPartitions___spec__2.exit: ; preds = %lean_obj_tag.exit.i, %29, %36
  %.1.i = phi i64 [ 3, %36 ], [ 1, %lean_obj_tag.exit.i ], [ 3, %29 ]
  %42 = ptrtoint ptr %1 to i64
  %43 = and i64 %42, 1
  %.not = icmp eq i64 %43, 0
  br i1 %.not, label %44, label %lean_dec.exit5

44:                                               ; preds = %l_Std_DHashMap_Internal_AssocList_contains___at___private_Lean_Server_Completion_CompletionInfoSelection_0__Lean_Server_Completion_computePrioritizedCompletionPartitions___spec__2.exit
  %45 = load i32, ptr %1, align 4, !tbaa !8
  %46 = icmp sgt i32 %45, 1
  br i1 %46, label %47, label %49, !prof !11

47:                                               ; preds = %44
  %48 = add nsw i32 %45, -1
  store i32 %48, ptr %1, align 4, !tbaa !8
  br label %lean_dec.exit5

49:                                               ; preds = %44
  %.not.i = icmp eq i32 %45, 0
  br i1 %.not.i, label %lean_dec.exit5, label %50

50:                                               ; preds = %49
  tail call void @lean_dec_ref_cold(ptr noundef nonnull %1) #4
  br label %lean_dec.exit5

lean_dec.exit5:                                   ; preds = %50, %49, %47, %l_Std_DHashMap_Internal_AssocList_contains___at___private_Lean_Server_Completion_CompletionInfoSelection_0__Lean_Server_Completion_computePrioritizedCompletionPartitions___spec__2.exit
  %51 = ptrtoint ptr %0 to i64
  %52 = and i64 %51, 1
  %.not8 = icmp eq i64 %52, 0
  br i1 %.not8, label %53, label %lean_dec.exit

53:                                               ; preds = %lean_dec.exit5
  %54 = load i32, ptr %0, align 4, !tbaa !8
  %55 = icmp sgt i32 %54, 1
  br i1 %55, label %56, label %58, !prof !11

56:                                               ; preds = %53
  %57 = add nsw i32 %54, -1
  store i32 %57, ptr %0, align 4, !tbaa !8
  br label %lean_dec.exit

58:                                               ; preds = %53
  %.not.i6 = icmp eq i32 %54, 0
  br i1 %.not.i6, label %lean_dec.exit, label %59

59:                                               ; preds = %58
  tail call void @lean_dec_ref_cold(ptr noundef nonnull %0) #4
  br label %lean_dec.exit

lean_dec.exit:                                    ; preds = %59, %58, %56, %lean_dec.exit5
  %60 = inttoptr i64 %.1.i to ptr
  ret ptr %60
}